target datalayout = "e-m:e-p270:32:32-p271:32:32-p272:64:64-i64:64-i128:128-f80:128-n8:16:32:64-S128"
target triple = "x86_64-pc-linux-gnu"

%struct.AVFilterContext = type { ptr, ptr, ptr, ptr, ptr, i32, ptr, ptr, i32, ptr, ptr, i32, i32, ptr, ptr, ptr, ptr, i32, ptr, i32, i32 }
%struct.AVFilterLink = type { ptr, ptr, ptr, ptr, i32, i32, i32, i32, %struct.AVRational, i32, i32, i32, %struct.AVChannelLayout, %struct.AVRational, ptr, i32, %struct.AVFilterFormatsConfig, %struct.AVFilterFormatsConfig }
%struct.AVChannelLayout = type { i32, i32, %union.anon.1, ptr }
%union.anon.1 = type { i64 }
%struct.AVRational = type { i32, i32 }
%struct.AVFilterFormatsConfig = type { ptr, ptr, ptr, ptr, ptr }
%struct.AVFilterFormats = type { i32, ptr, i32, ptr }
%struct.AVPixFmtDescriptor = type { ptr, i8, i8, i8, i64, [4 x %struct.AVComponentDescriptor], ptr }
%struct.AVComponentDescriptor = type { i32, i32, i32, i32, i32 }

@query_formats.out8_pixfmts = internal constant [2 x i32] [i32 8, i32 -1], align 4
@query_formats.out9le_pixfmts = internal constant [2 x i32] [i32 173, i32 -1], align 4
@query_formats.out9be_pixfmts = internal constant [2 x i32] [i32 172, i32 -1], align 4
@query_formats.out10le_pixfmts = internal constant [2 x i32] [i32 168, i32 -1], align 4
@query_formats.out10be_pixfmts = internal constant [2 x i32] [i32 167, i32 -1], align 4
@query_formats.out12le_pixfmts = internal constant [2 x i32] [i32 166, i32 -1], align 4
@query_formats.out12be_pixfmts = internal constant [2 x i32] [i32 165, i32 -1], align 4
@query_formats.out14le_pixfmts = internal constant [2 x i32] [i32 181, i32 -1], align 4
@query_formats.out14be_pixfmts = internal constant [2 x i32] [i32 180, i32 -1], align 4
@query_formats.out16le_pixfmts = internal constant [2 x i32] [i32 30, i32 -1], align 4
@query_formats.out16be_pixfmts = internal constant [2 x i32] [i32 29, i32 -1], align 4
@query_formats.out32le_pixfmts = internal constant [2 x i32] [i32 183, i32 -1], align 4
@query_formats.out32be_pixfmts = internal constant [2 x i32] [i32 182, i32 -1], align 4

; Function Attrs: nounwind uwtable
define internal i32 @query_formats(ptr noundef %0) #1 {
  %2 = alloca i32, align 4
  %3 = alloca ptr, align 8
  %4 = alloca ptr, align 8
  %5 = alloca ptr, align 8
  %6 = alloca ptr, align 8
  %7 = alloca ptr, align 8
  %8 = alloca i32, align 4
  %9 = alloca i32, align 4
  %10 = alloca i32, align 4
  %11 = alloca i32, align 4
  %12 = alloca i32, align 4
  store ptr %0, ptr %3, align 8, !tbaa !4
  call void @llvm.lifetime.start.p0(i64 8, ptr %4) #7
  call void @llvm.lifetime.start.p0(i64 8, ptr %5) #7
  call void @llvm.lifetime.start.p0(i64 8, ptr %6) #7
  call void @llvm.lifetime.start.p0(i64 8, ptr %7) #7
  call void @llvm.lifetime.start.p0(i64 4, ptr %8) #7
  call void @llvm.lifetime.start.p0(i64 4, ptr %9) #7
  call void @llvm.lifetime.start.p0(i64 4, ptr %10) #7
  store i32 0, ptr %10, align 4, !tbaa !26
  call void @llvm.lifetime.start.p0(i64 4, ptr %11) #7
  store i32 0, ptr %11, align 4, !tbaa !26
  %13 = load ptr, ptr %3, align 8, !tbaa !4
  %14 = getelementptr inbounds nuw %struct.AVFilterContext, ptr %13, i32 0, i32 4
  %15 = load ptr, ptr %14, align 8, !tbaa !35
  %16 = getelementptr inbounds ptr, ptr %15, i64 0
  %17 = load ptr, ptr %16, align 8, !tbaa !36
  %18 = getelementptr inbounds nuw %struct.AVFilterLink, ptr %17, i32 0, i32 16
  %19 = getelementptr inbounds nuw %struct.AVFilterFormatsConfig, ptr %18, i32 0, i32 0
  %20 = load ptr, ptr %19, align 8, !tbaa !38
  %21 = icmp ne ptr %20, null
  br i1 %21, label %22, label %34

22:                                               ; preds = %1
  %23 = load ptr, ptr %3, align 8, !tbaa !4
  %24 = getelementptr inbounds nuw %struct.AVFilterContext, ptr %23, i32 0, i32 4
  %25 = load ptr, ptr %24, align 8, !tbaa !35
  %26 = getelementptr inbounds ptr, ptr %25, i64 0
  %27 = load ptr, ptr %26, align 8, !tbaa !36
  %28 = getelementptr inbounds nuw %struct.AVFilterLink, ptr %27, i32 0, i32 16
  %29 = getelementptr inbounds nuw %struct.AVFilterFormatsConfig, ptr %28, i32 0, i32 0
  %30 = load ptr, ptr %29, align 8, !tbaa !38
  %31 = getelementptr inbounds nuw %struct.AVFilterFormats, ptr %30, i32 0, i32 0
  %32 = load i32, ptr %31, align 8, !tbaa !46
  %33 = icmp ne i32 %32, 0
  br i1 %33, label %35, label %34

34:                                               ; preds = %22, %1
  store i32 -11, ptr %2, align 4
  store i32 1, ptr %12, align 4
  br label %246

35:                                               ; preds = %22
  %36 = load ptr, ptr %3, align 8, !tbaa !4
  %37 = getelementptr inbounds nuw %struct.AVFilterContext, ptr %36, i32 0, i32 4
  %38 = load ptr, ptr %37, align 8, !tbaa !35
  %39 = getelementptr inbounds ptr, ptr %38, i64 0
  %40 = load ptr, ptr %39, align 8, !tbaa !36
  %41 = getelementptr inbounds nuw %struct.AVFilterLink, ptr %40, i32 0, i32 16
  %42 = getelementptr inbounds nuw %struct.AVFilterFormatsConfig, ptr %41, i32 0, i32 0
  %43 = load ptr, ptr %42, align 8, !tbaa !38
  store ptr %43, ptr %7, align 8, !tbaa !51
  %44 = load ptr, ptr %7, align 8, !tbaa !51
  %45 = getelementptr inbounds nuw %struct.AVFilterFormats, ptr %44, i32 0, i32 1
  %46 = load ptr, ptr %45, align 8, !tbaa !52
  %47 = getelementptr inbounds i32, ptr %46, i64 0
  %48 = load i32, ptr %47, align 4, !tbaa !26
  %49 = call ptr @av_pix_fmt_desc_get(i32 noundef %48)
  store ptr %49, ptr %6, align 8, !tbaa !53
  %50 = load ptr, ptr %6, align 8, !tbaa !53
  %51 = getelementptr inbounds nuw %struct.AVPixFmtDescriptor, ptr %50, i32 0, i32 5
  %52 = getelementptr inbounds [4 x %struct.AVComponentDescriptor], ptr %51, i64 0, i64 0
  %53 = getelementptr inbounds nuw %struct.AVComponentDescriptor, ptr %52, i32 0, i32 4
  %54 = load i32, ptr %53, align 8, !tbaa !55
  store i32 %54, ptr %10, align 4, !tbaa !26
  %55 = load ptr, ptr %6, align 8, !tbaa !53
  %56 = getelementptr inbounds nuw %struct.AVPixFmtDescriptor, ptr %55, i32 0, i32 4
  %57 = load i64, ptr %56, align 8, !tbaa !57
  %58 = and i64 %57, 1
  %59 = trunc i64 %58 to i32
  store i32 %59, ptr %11, align 4, !tbaa !26
  %60 = load i32, ptr %11, align 4, !tbaa !26
  %61 = icmp ne i32 %60, 0
  br i1 %61, label %62, label %63

62:                                               ; preds = %35
  store ptr @query_formats.in_pixfmts_be, ptr %5, align 8, !tbaa !60
  br label %64

63:                                               ; preds = %35
  store ptr @query_formats.in_pixfmts_le, ptr %5, align 8, !tbaa !60
  br label %64

64:                                               ; preds = %63, %62
  %65 = load ptr, ptr %3, align 8, !tbaa !4
  %66 = getelementptr inbounds nuw %struct.AVFilterContext, ptr %65, i32 0, i32 4
  %67 = load ptr, ptr %66, align 8, !tbaa !35
  %68 = getelementptr inbounds ptr, ptr %67, i64 0
  %69 = load ptr, ptr %68, align 8, !tbaa !36
  %70 = getelementptr inbounds nuw %struct.AVFilterLink, ptr %69, i32 0, i32 17
  %71 = getelementptr inbounds nuw %struct.AVFilterFormatsConfig, ptr %70, i32 0, i32 0
  %72 = load ptr, ptr %71, align 8, !tbaa !61
  %73 = icmp ne ptr %72, null
  br i1 %73, label %89, label %74

74:                                               ; preds = %64
  %75 = load ptr, ptr %5, align 8, !tbaa !60
  %76 = call ptr @ff_make_format_list(ptr noundef %75)
  %77 = load ptr, ptr %3, align 8, !tbaa !4
  %78 = getelementptr inbounds nuw %struct.AVFilterContext, ptr %77, i32 0, i32 4
  %79 = load ptr, ptr %78, align 8, !tbaa !35
  %80 = getelementptr inbounds ptr, ptr %79, i64 0
  %81 = load ptr, ptr %80, align 8, !tbaa !36
  %82 = getelementptr inbounds nuw %struct.AVFilterLink, ptr %81, i32 0, i32 17
  %83 = getelementptr inbounds nuw %struct.AVFilterFormatsConfig, ptr %82, i32 0, i32 0
  %84 = call i32 @ff_formats_ref(ptr noundef %76, ptr noundef %83)
  store i32 %84, ptr %9, align 4, !tbaa !26
  %85 = icmp slt i32 %84, 0
  br i1 %85, label %86, label %88

86:                                               ; preds = %74
  %87 = load i32, ptr %9, align 4, !tbaa !26
  store i32 %87, ptr %2, align 4
  store i32 1, ptr %12, align 4
  br label %246

88:                                               ; preds = %74
  br label %89

89:                                               ; preds = %88, %64
  store i32 1, ptr %8, align 4, !tbaa !26
  br label %90

90:                                               ; preds = %122, %89
  %91 = load i32, ptr %8, align 4, !tbaa !26
  %92 = load ptr, ptr %7, align 8, !tbaa !51
  %93 = getelementptr inbounds nuw %struct.AVFilterFormats, ptr %92, i32 0, i32 0
  %94 = load i32, ptr %93, align 8, !tbaa !46
  %95 = icmp ult i32 %91, %94
  br i1 %95, label %96, label %125

96:                                               ; preds = %90
  %97 = load ptr, ptr %7, align 8, !tbaa !51
  %98 = getelementptr inbounds nuw %struct.AVFilterFormats, ptr %97, i32 0, i32 1
  %99 = load ptr, ptr %98, align 8, !tbaa !52
  %100 = load i32, ptr %8, align 4, !tbaa !26
  %101 = sext i32 %100 to i64
  %102 = getelementptr inbounds i32, ptr %99, i64 %101
  %103 = load i32, ptr %102, align 4, !tbaa !26
  %104 = call ptr @av_pix_fmt_desc_get(i32 noundef %103)
  store ptr %104, ptr %6, align 8, !tbaa !53
  %105 = load i32, ptr %10, align 4, !tbaa !26
  %106 = load ptr, ptr %6, align 8, !tbaa !53
  %107 = getelementptr inbounds nuw %struct.AVPixFmtDescriptor, ptr %106, i32 0, i32 5
  %108 = getelementptr inbounds [4 x %struct.AVComponentDescriptor], ptr %107, i64 0, i64 0
  %109 = getelementptr inbounds nuw %struct.AVComponentDescriptor, ptr %108, i32 0, i32 4
  %110 = load i32, ptr %109, align 8, !tbaa !55
  %111 = icmp ne i32 %105, %110
  br i1 %111, label %120, label %112

112:                                              ; preds = %96
  %113 = load i32, ptr %11, align 4, !tbaa !26
  %114 = sext i32 %113 to i64
  %115 = load ptr, ptr %6, align 8, !tbaa !53
  %116 = getelementptr inbounds nuw %struct.AVPixFmtDescriptor, ptr %115, i32 0, i32 4
  %117 = load i64, ptr %116, align 8, !tbaa !57
  %118 = and i64 %117, 1
  %119 = icmp ne i64 %114, %118
  br i1 %119, label %120, label %121

120:                                              ; preds = %112, %96
  store i32 -11, ptr %2, align 4
  store i32 1, ptr %12, align 4
  br label %246

121:                                              ; preds = %112
  br label %122

122:                                              ; preds = %121
  %123 = load i32, ptr %8, align 4, !tbaa !26
  %124 = add nsw i32 %123, 1
  store i32 %124, ptr %8, align 4, !tbaa !26
  br label %90, !llvm.loop !62

125:                                              ; preds = %90
  %126 = load i32, ptr %10, align 4, !tbaa !26
  %127 = icmp eq i32 %126, 8
  br i1 %127, label %128, label %129

128:                                              ; preds = %125
  store ptr @query_formats.out8_pixfmts, ptr %4, align 8, !tbaa !60
  br label %218

129:                                              ; preds = %125
  %130 = load i32, ptr %11, align 4, !tbaa !26
  %131 = icmp ne i32 %130, 0
  br i1 %131, label %136, label %132

132:                                              ; preds = %129
  %133 = load i32, ptr %10, align 4, !tbaa !26
  %134 = icmp eq i32 %133, 9
  br i1 %134, label %135, label %136

135:                                              ; preds = %132
  store ptr @query_formats.out9le_pixfmts, ptr %4, align 8, !tbaa !60
  br label %217

136:                                              ; preds = %132, %129
  %137 = load i32, ptr %11, align 4, !tbaa !26
  %138 = icmp ne i32 %137, 0
  br i1 %138, label %139, label %143

139:                                              ; preds = %136
  %140 = load i32, ptr %10, align 4, !tbaa !26
  %141 = icmp eq i32 %140, 9
  br i1 %141, label %142, label %143

142:                                              ; preds = %139
  store ptr @query_formats.out9be_pixfmts, ptr %4, align 8, !tbaa !60
  br label %216

143:                                              ; preds = %139, %136
  %144 = load i32, ptr %11, align 4, !tbaa !26
  %145 = icmp ne i32 %144, 0
  br i1 %145, label %150, label %146

146:                                              ; preds = %143
  %147 = load i32, ptr %10, align 4, !tbaa !26
  %148 = icmp eq i32 %147, 10
  br i1 %148, label %149, label %150

149:                                              ; preds = %146
  store ptr @query_formats.out10le_pixfmts, ptr %4, align 8, !tbaa !60
  br label %215

150:                                              ; preds = %146, %143
  %151 = load i32, ptr %11, align 4, !tbaa !26
  %152 = icmp ne i32 %151, 0
  br i1 %152, label %153, label %157

153:                                              ; preds = %150
  %154 = load i32, ptr %10, align 4, !tbaa !26
  %155 = icmp eq i32 %154, 10
  br i1 %155, label %156, label %157

156:                                              ; preds = %153
  store ptr @query_formats.out10be_pixfmts, ptr %4, align 8, !tbaa !60
  br label %214

157:                                              ; preds = %153, %150
  %158 = load i32, ptr %11, align 4, !tbaa !26
  %159 = icmp ne i32 %158, 0
  br i1 %159, label %164, label %160

160:                                              ; preds = %157
  %161 = load i32, ptr %10, align 4, !tbaa !26
  %162 = icmp eq i32 %161, 12
  br i1 %162, label %163, label %164

163:                                              ; preds = %160
  store ptr @query_formats.out12le_pixfmts, ptr %4, align 8, !tbaa !60
  br label %213

164:                                              ; preds = %160, %157
  %165 = load i32, ptr %11, align 4, !tbaa !26
  %166 = icmp ne i32 %165, 0
  br i1 %166, label %167, label %171

167:                                              ; preds = %164
  %168 = load i32, ptr %10, align 4, !tbaa !26
  %169 = icmp eq i32 %168, 12
  br i1 %169, label %170, label %171

170:                                              ; preds = %167
  store ptr @query_formats.out12be_pixfmts, ptr %4, align 8, !tbaa !60
  br label %212

171:                                              ; preds = %167, %164
  %172 = load i32, ptr %11, align 4, !tbaa !26
  %173 = icmp ne i32 %172, 0
  br i1 %173, label %178, label %174

174:                                              ; preds = %171
  %175 = load i32, ptr %10, align 4, !tbaa !26
  %176 = icmp eq i32 %175, 14
  br i1 %176, label %177, label %178

177:                                              ; preds = %174
  store ptr @query_formats.out14le_pixfmts, ptr %4, align 8, !tbaa !60
  br label %211

178:                                              ; preds = %174, %171
  %179 = load i32, ptr %11, align 4, !tbaa !26
  %180 = icmp ne i32 %179, 0
  br i1 %180, label %181, label %185

181:                                              ; preds = %178
  %182 = load i32, ptr %10, align 4, !tbaa !26
  %183 = icmp eq i32 %182, 14
  br i1 %183, label %184, label %185

184:                                              ; preds = %181
  store ptr @query_formats.out14be_pixfmts, ptr %4, align 8, !tbaa !60
  br label %210

185:                                              ; preds = %181, %178
  %186 = load i32, ptr %11, align 4, !tbaa !26
  %187 = icmp ne i32 %186, 0
  br i1 %187, label %188, label %192

188:                                              ; preds = %185
  %189 = load i32, ptr %10, align 4, !tbaa !26
  %190 = icmp eq i32 %189, 16
  br i1 %190, label %191, label %192

191:                                              ; preds = %188
  store ptr @query_formats.out16be_pixfmts, ptr %4, align 8, !tbaa !60
  br label %209

192:                                              ; preds = %188, %185
  %193 = load i32, ptr %11, align 4, !tbaa !26
  %194 = icmp ne i32 %193, 0
  br i1 %194, label %199, label %195

195:                                              ; preds = %192
  %196 = load i32, ptr %10, align 4, !tbaa !26
  %197 = icmp eq i32 %196, 16
  br i1 %197, label %198, label %199

198:                                              ; preds = %195
  store ptr @query_formats.out16le_pixfmts, ptr %4, align 8, !tbaa !60
  br label %208

199:                                              ; preds = %195, %192
  %200 = load i32, ptr %11, align 4, !tbaa !26
  %201 = icmp ne i32 %200, 0
  br i1 %201, label %202, label %206

202:                                              ; preds = %199
  %203 = load i32, ptr %10, align 4, !tbaa !26
  %204 = icmp eq i32 %203, 32
  br i1 %204, label %205, label %206

205:                                              ; preds = %202
  store ptr @query_formats.out32be_pixfmts, ptr %4, align 8, !tbaa !60
  br label %207

206:                                              ; preds = %202, %199
  store ptr @query_formats.out32le_pixfmts, ptr %4, align 8, !tbaa !60
  br label %207

207:                                              ; preds = %206, %205
  br label %208

208:                                              ; preds = %207, %198
  br label %209

209:                                              ; preds = %208, %191
  br label %210

210:                                              ; preds = %209, %184
  br label %211

211:                                              ; preds = %210, %177
  br label %212

212:                                              ; preds = %211, %170
  br label %213

213:                                              ; preds = %212, %163
  br label %214

214:                                              ; preds = %213, %156
  br label %215

215:                                              ; preds = %214, %149
  br label %216

216:                                              ; preds = %215, %142
  br label %217

217:                                              ; preds = %216, %135
  br label %218

218:                                              ; preds = %217, %128
  store i32 0, ptr %8, align 4, !tbaa !26
  br label %219

219:                                              ; preds = %242, %218
  %220 = load i32, ptr %8, align 4, !tbaa !26
  %221 = load ptr, ptr %3, align 8, !tbaa !4
  %222 = getelementptr inbounds nuw %struct.AVFilterContext, ptr %221, i32 0, i32 8
  %223 = load i32, ptr %222, align 8, !tbaa !27
  %224 = icmp ult i32 %220, %223
  br i1 %224, label %225, label %245

225:                                              ; preds = %219
  %226 = load ptr, ptr %4, align 8, !tbaa !60
  %227 = call ptr @ff_make_format_list(ptr noundef %226)
  %228 = load ptr, ptr %3, align 8, !tbaa !4
  %229 = getelementptr inbounds nuw %struct.AVFilterContext, ptr %228, i32 0, i32 7
  %230 = load ptr, ptr %229, align 8, !tbaa !63
  %231 = load i32, ptr %8, align 4, !tbaa !26
  %232 = sext i32 %231 to i64
  %233 = getelementptr inbounds ptr, ptr %230, i64 %232
  %234 = load ptr, ptr %233, align 8, !tbaa !36
  %235 = getelementptr inbounds nuw %struct.AVFilterLink, ptr %234, i32 0, i32 16
  %236 = getelementptr inbounds nuw %struct.AVFilterFormatsConfig, ptr %235, i32 0, i32 0
  %237 = call i32 @ff_formats_ref(ptr noundef %227, ptr noundef %236)
  store i32 %237, ptr %9, align 4, !tbaa !26
  %238 = icmp slt i32 %237, 0
  br i1 %238, label %239, label %241

239:                                              ; preds = %225
  %240 = load i32, ptr %9, align 4, !tbaa !26
  store i32 %240, ptr %2, align 4
  store i32 1, ptr %12, align 4
  br label %246

241:                                              ; preds = %225
  br label %242

242:                                              ; preds = %241
  %243 = load i32, ptr %8, align 4, !tbaa !26
  %244 = add nsw i32 %243, 1
  store i32 %244, ptr %8, align 4, !tbaa !26
  br label %219, !llvm.loop !64

245:                                              ; preds = %219
  store i32 0, ptr %2, align 4
  store i32 1, ptr %12, align 4
  br label %246

246:                                              ; preds = %245, %239, %120, %86, %34
  call void @llvm.lifetime.end.p0(i64 4, ptr %11) #7
  call void @llvm.lifetime.end.p0(i64 4, ptr %10) #7
  call void @llvm.lifetime.end.p0(i64 4, ptr %9) #7
  call void @llvm.lifetime.end.p0(i64 4, ptr %8) #7
  call void @llvm.lifetime.end.p0(i64 8, ptr %7) #7
  call void @llvm.lifetime.end.p0(i64 8, ptr %6) #7
  call void @llvm.lifetime.end.p0(i64 8, ptr %5) #7
  call void @llvm.lifetime.end.p0(i64 8, ptr %4) #7
  %247 = load i32, ptr %2, align 4
  ret i32 %247
}