; Function Attrs: nounwind uwtable
define internal range(i32 -2147483648, 1) i32 @query_formats(ptr noundef readonly captures(none) %0) #1 {
  %2 = getelementptr inbounds nuw i8, ptr %0, i64 32
  %3 = load ptr, ptr %2, align 8, !tbaa !30
  %4 = load ptr, ptr %3, align 8, !tbaa !31
  %5 = getelementptr inbounds nuw i8, ptr %4, i64 120
  %6 = load ptr, ptr %5, align 8, !tbaa !33
  %.not = icmp eq ptr %6, null
  br i1 %.not, label %.loopexit, label %7

7:                                                ; preds = %1
  %8 = load i32, ptr %6, align 8, !tbaa !42
  %.not78 = icmp eq i32 %8, 0
  br i1 %.not78, label %.loopexit, label %9

9:                                                ; preds = %7
  %10 = getelementptr inbounds nuw i8, ptr %6, i64 8
  %11 = load ptr, ptr %10, align 8, !tbaa !47
  %12 = load i32, ptr %11, align 4, !tbaa !23
  %13 = tail call ptr @av_pix_fmt_desc_get(i32 noundef %12) #6
  %14 = getelementptr inbounds nuw i8, ptr %13, i64 40
  %15 = load i32, ptr %14, align 8, !tbaa !48
  %16 = getelementptr inbounds nuw i8, ptr %13, i64 16
  %17 = load i64, ptr %16, align 8, !tbaa !50
  %18 = trunc i64 %17 to i32
  %19 = and i32 %18, 1
  %20 = icmp ne i32 %19, 0
  %21 = load ptr, ptr %2, align 8, !tbaa !30
  %22 = load ptr, ptr %21, align 8, !tbaa !31
  %23 = getelementptr inbounds nuw i8, ptr %22, i64 160
  %24 = load ptr, ptr %23, align 8, !tbaa !53
  %.not79 = icmp eq ptr %24, null
  br i1 %.not79, label %25, label %32

25:                                               ; preds = %9
  %query_formats.in_pixfmts_be.query_formats.in_pixfmts_le = select i1 %20, ptr @query_formats.in_pixfmts_be, ptr @query_formats.in_pixfmts_le
  %26 = tail call ptr @ff_make_format_list(ptr noundef nonnull %query_formats.in_pixfmts_be.query_formats.in_pixfmts_le) #6
  %27 = load ptr, ptr %2, align 8, !tbaa !30
  %28 = load ptr, ptr %27, align 8, !tbaa !31
  %29 = getelementptr inbounds nuw i8, ptr %28, i64 160
  %30 = tail call i32 @ff_formats_ref(ptr noundef %26, ptr noundef nonnull %29) #6
  %31 = icmp slt i32 %30, 0
  br i1 %31, label %.loopexit, label %32

32:                                               ; preds = %25, %9
  %33 = load i32, ptr %6, align 8, !tbaa !42
  %34 = icmp ugt i32 %33, 1
  br i1 %34, label %.lr.ph, label %._crit_edge

35:                                               ; preds = %45
  %indvars.iv.next = add nuw nsw i64 %indvars.iv, 1
  %36 = load i32, ptr %6, align 8, !tbaa !42
  %37 = zext i32 %36 to i64
  %38 = icmp samesign ult i64 %indvars.iv.next, %37
  br i1 %38, label %.lr.ph, label %._crit_edge, !llvm.loop !54

.lr.ph:                                           ; preds = %32, %35
  %indvars.iv = phi i64 [ %indvars.iv.next, %35 ], [ 1, %32 ]
  %39 = load ptr, ptr %10, align 8, !tbaa !47
  %40 = getelementptr inbounds nuw i32, ptr %39, i64 %indvars.iv
  %41 = load i32, ptr %40, align 4, !tbaa !23
  %42 = tail call ptr @av_pix_fmt_desc_get(i32 noundef %41) #6
  %43 = getelementptr inbounds nuw i8, ptr %42, i64 40
  %44 = load i32, ptr %43, align 8, !tbaa !48
  %.not80 = icmp eq i32 %15, %44
  br i1 %.not80, label %45, label %.loopexit

45:                                               ; preds = %.lr.ph
  %46 = getelementptr inbounds nuw i8, ptr %42, i64 16
  %47 = load i64, ptr %46, align 8, !tbaa !50
  %48 = xor i64 %47, %17
  %49 = and i64 %48, 1
  %.not81 = icmp eq i64 %49, 0
  br i1 %.not81, label %35, label %.loopexit

._crit_edge:                                      ; preds = %35, %32
  %50 = icmp eq i32 %15, 8
  br i1 %50, label %69, label %51

51:                                               ; preds = %._crit_edge
  %52 = icmp eq i32 %19, 0
  %53 = icmp eq i32 %15, 9
  %or.cond = select i1 %52, i1 %53, i1 false
  br i1 %or.cond, label %69, label %54

54:                                               ; preds = %51
  %or.cond3 = select i1 %20, i1 %53, i1 false
  br i1 %or.cond3, label %69, label %55

55:                                               ; preds = %54
  %56 = icmp eq i32 %15, 10
  %or.cond5 = select i1 %52, i1 %56, i1 false
  br i1 %or.cond5, label %69, label %57

57:                                               ; preds = %55
  %or.cond7 = select i1 %20, i1 %56, i1 false
  br i1 %or.cond7, label %69, label %58

58:                                               ; preds = %57
  %59 = icmp eq i32 %15, 12
  %or.cond9 = select i1 %52, i1 %59, i1 false
  br i1 %or.cond9, label %69, label %60

60:                                               ; preds = %58
  %or.cond11 = select i1 %20, i1 %59, i1 false
  br i1 %or.cond11, label %69, label %61

61:                                               ; preds = %60
  %62 = icmp eq i32 %15, 14
  %or.cond13 = select i1 %52, i1 %62, i1 false
  br i1 %or.cond13, label %69, label %63

63:                                               ; preds = %61
  %or.cond15 = select i1 %20, i1 %62, i1 false
  br i1 %or.cond15, label %69, label %64

64:                                               ; preds = %63
  %65 = icmp eq i32 %15, 16
  %or.cond17 = select i1 %20, i1 %65, i1 false
  br i1 %or.cond17, label %69, label %66

66:                                               ; preds = %64
  %or.cond19 = select i1 %52, i1 %65, i1 false
  br i1 %or.cond19, label %69, label %67

67:                                               ; preds = %66
  %68 = icmp eq i32 %15, 32
  %or.cond21 = select i1 %20, i1 %68, i1 false
  %query_formats.out32be_pixfmts.query_formats.out32le_pixfmts = select i1 %or.cond21, ptr @query_formats.out32be_pixfmts, ptr @query_formats.out32le_pixfmts
  br label %69

69:                                               ; preds = %67, %66, %64, %63, %61, %60, %58, %57, %55, %54, %51, %._crit_edge
  %.073 = phi ptr [ @query_formats.out8_pixfmts, %._crit_edge ], [ @query_formats.out9le_pixfmts, %51 ], [ @query_formats.out9be_pixfmts, %54 ], [ @query_formats.out10le_pixfmts, %55 ], [ @query_formats.out10be_pixfmts, %57 ], [ @query_formats.out12le_pixfmts, %58 ], [ @query_formats.out12be_pixfmts, %60 ], [ @query_formats.out14le_pixfmts, %61 ], [ @query_formats.out14be_pixfmts, %63 ], [ @query_formats.out16be_pixfmts, %64 ], [ @query_formats.out16le_pixfmts, %66 ], [ %query_formats.out32be_pixfmts.query_formats.out32le_pixfmts, %67 ]
  %70 = getelementptr inbounds nuw i8, ptr %0, i64 64
  %71 = load i32, ptr %70, align 8, !tbaa !22
  %.not89 = icmp eq i32 %71, 0
  br i1 %.not89, label %.loopexit, label %.lr.ph86

.lr.ph86:                                         ; preds = %69
  %72 = getelementptr inbounds nuw i8, ptr %0, i64 56
  br label %77

73:                                               ; preds = %77
  %indvars.iv.next93 = add nuw nsw i64 %indvars.iv92, 1
  %74 = load i32, ptr %70, align 8, !tbaa !22
  %75 = zext i32 %74 to i64
  %76 = icmp samesign ult i64 %indvars.iv.next93, %75
  br i1 %76, label %77, label %.loopexit, !llvm.loop !55

77:                                               ; preds = %.lr.ph86, %73
  %indvars.iv92 = phi i64 [ 0, %.lr.ph86 ], [ %indvars.iv.next93, %73 ]
  %78 = tail call ptr @ff_make_format_list(ptr noundef nonnull %.073) #6
  %79 = load ptr, ptr %72, align 8, !tbaa !56
  %80 = getelementptr inbounds nuw ptr, ptr %79, i64 %indvars.iv92
  %81 = load ptr, ptr %80, align 8, !tbaa !31
  %82 = getelementptr inbounds nuw i8, ptr %81, i64 120
  %83 = tail call i32 @ff_formats_ref(ptr noundef %78, ptr noundef nonnull %82) #6
  %84 = icmp slt i32 %83, 0
  br i1 %84, label %.loopexit, label %73

.loopexit:                                        ; preds = %.lr.ph, %45, %77, %73, %69, %25, %1, %7
  %.071 = phi i32 [ -11, %7 ], [ -11, %1 ], [ %30, %25 ], [ 0, %69 ], [ %83, %77 ], [ 0, %73 ], [ -11, %45 ], [ -11, %.lr.ph ]
  ret i32 %.071
}